; Function Attrs: nofree norecurse nosync nounwind memory(read, argmem: readwrite, inaccessiblemem: none) uwtable
define internal fastcc range(i32 0, 17) i32 @SzWaitAttribute(ptr noundef nonnull captures(none) %0, i64 noundef range(i64 9, 13) %1) unnamed_addr #5 {
  %3 = getelementptr inbounds nuw i8, ptr %0, i64 8
  %.promoted41 = load i64, ptr %3, align 8
  %4 = icmp eq i64 %.promoted41, 0
  br i1 %4, label %SzReadID.exit, label %.lr.ph

.lr.ph:                                           ; preds = %2
  %.promoted = load ptr, ptr %0, align 8
  br label %5

5:                                                ; preds = %.lr.ph, %SzSkeepData.exit
  %6 = phi ptr [ %.promoted, %.lr.ph ], [ %73, %SzSkeepData.exit ]
  %.promoted4447 = phi i64 [ %.promoted41, %.lr.ph ], [ %72, %SzSkeepData.exit ]
  %7 = add i64 %.promoted4447, -1
  store i64 %7, ptr %3, align 8
  %8 = getelementptr inbounds nuw i8, ptr %6, i64 1
  store ptr %8, ptr %0, align 8
  %9 = load i8, ptr %6, align 1
  %10 = zext i8 %9 to i32
  %11 = icmp sgt i8 %9, -1
  br i1 %11, label %._crit_edge.i, label %.lr.ph.i

12:                                               ; preds = %27
  %13 = lshr i32 %.01738.i6.i, 1
  %14 = and i32 %13, %10
  %15 = icmp eq i32 %14, 0
  br i1 %15, label %._crit_edge.loopexit.i, label %.lr.ph.i

._crit_edge.loopexit.i:                           ; preds = %12
  %16 = add nuw nsw i32 %13, 255
  %17 = shl i64 %indvars.iv.next.i.i, 3
  %18 = and i64 %17, 4294967288
  br label %._crit_edge.i

._crit_edge.i:                                    ; preds = %._crit_edge.loopexit.i, %5
  %19 = phi ptr [ %8, %5 ], [ %29, %._crit_edge.loopexit.i ]
  %.promoted43 = phi i64 [ %7, %5 ], [ %28, %._crit_edge.loopexit.i ]
  %.lcssa.i = phi i64 [ 0, %5 ], [ %34, %._crit_edge.loopexit.i ]
  %indvars.iv.i.lcssa.i = phi i64 [ 0, %5 ], [ %18, %._crit_edge.loopexit.i ]
  %.01738.i.lcssa.i = phi i32 [ 383, %5 ], [ %16, %._crit_edge.loopexit.i ]
  %20 = and i32 %.01738.i.lcssa.i, %10
  %21 = zext nneg i32 %20 to i64
  %22 = shl nuw i64 %21, %indvars.iv.i.lcssa.i
  %23 = add i64 %22, %.lcssa.i
  br label %.loopexit

.lr.ph.i:                                         ; preds = %5, %12
  %24 = phi ptr [ %29, %12 ], [ %8, %5 ]
  %25 = phi i64 [ %28, %12 ], [ %7, %5 ]
  %.1 = phi i64 [ %34, %12 ], [ 0, %5 ]
  %.01738.i6.i = phi i32 [ %13, %12 ], [ 128, %5 ]
  %indvars.iv.i5.i = phi i64 [ %indvars.iv.next.i.i, %12 ], [ 0, %5 ]
  %26 = icmp eq i64 %25, 0
  br i1 %26, label %SzReadID.exit, label %27

27:                                               ; preds = %.lr.ph.i
  %28 = add i64 %25, -1
  store i64 %28, ptr %3, align 8
  %29 = getelementptr inbounds nuw i8, ptr %24, i64 1
  store ptr %29, ptr %0, align 8
  %30 = load i8, ptr %24, align 1
  %31 = zext i8 %30 to i64
  %32 = shl nuw nsw i64 %indvars.iv.i5.i, 3
  %33 = shl nuw i64 %31, %32
  %34 = or i64 %33, %.1
  %indvars.iv.next.i.i = add nuw nsw i64 %indvars.iv.i5.i, 1
  %exitcond.not.i.i = icmp eq i64 %indvars.iv.next.i.i, 8
  br i1 %exitcond.not.i.i, label %.loopexit, label %12

.loopexit:                                        ; preds = %27, %._crit_edge.i
  %35 = phi ptr [ %19, %._crit_edge.i ], [ %29, %27 ]
  %.promoted42 = phi i64 [ %.promoted43, %._crit_edge.i ], [ %28, %27 ]
  %.2.ph = phi i64 [ %23, %._crit_edge.i ], [ %34, %27 ]
  %36 = icmp eq i64 %.2.ph, %1
  br i1 %36, label %SzReadID.exit, label %37

37:                                               ; preds = %.loopexit
  %38 = icmp eq i64 %.2.ph, 0
  %39 = icmp eq i64 %.promoted42, 0
  %or.cond = or i1 %38, %39
  br i1 %or.cond, label %SzReadID.exit, label %40

40:                                               ; preds = %37
  %41 = add i64 %.promoted42, -1
  store i64 %41, ptr %3, align 8
  %42 = getelementptr inbounds nuw i8, ptr %35, i64 1
  store ptr %42, ptr %0, align 8
  %43 = load i8, ptr %35, align 1
  %44 = zext i8 %43 to i32
  br label %45

45:                                               ; preds = %60, %40
  %46 = phi ptr [ %42, %40 ], [ %62, %60 ]
  %47 = phi i64 [ %41, %40 ], [ %61, %60 ]
  %.07.i = phi i64 [ 0, %40 ], [ %67, %60 ]
  %indvars.iv.i.i = phi i64 [ 0, %40 ], [ %indvars.iv.next.i.i11, %60 ]
  %.01738.i.i = phi i32 [ 128, %40 ], [ %68, %60 ]
  %48 = and i32 %.01738.i.i, %44
  %49 = icmp eq i32 %48, 0
  br i1 %49, label %50, label %58

50:                                               ; preds = %45
  %51 = add nuw nsw i32 %.01738.i.i, 255
  %52 = and i32 %51, %44
  %53 = zext nneg i32 %52 to i64
  %54 = shl i64 %indvars.iv.i.i, 3
  %55 = and i64 %54, 4294967288
  %56 = shl nuw i64 %53, %55
  %57 = add i64 %56, %.07.i
  br label %.loopexit.i

58:                                               ; preds = %45
  %59 = icmp eq i64 %47, 0
  br i1 %59, label %SzReadID.exit, label %60

60:                                               ; preds = %58
  %61 = add i64 %47, -1
  store i64 %61, ptr %3, align 8
  %62 = getelementptr inbounds nuw i8, ptr %46, i64 1
  store ptr %62, ptr %0, align 8
  %63 = load i8, ptr %46, align 1
  %64 = zext i8 %63 to i64
  %65 = shl nuw nsw i64 %indvars.iv.i.i, 3
  %66 = shl nuw i64 %64, %65
  %67 = or i64 %66, %.07.i
  %68 = lshr i32 %.01738.i.i, 1
  %indvars.iv.next.i.i11 = add nuw nsw i64 %indvars.iv.i.i, 1
  %exitcond.not.i.i12 = icmp eq i64 %indvars.iv.next.i.i11, 8
  br i1 %exitcond.not.i.i12, label %.loopexit.i, label %45

.loopexit.i:                                      ; preds = %60, %50
  %69 = phi ptr [ %46, %50 ], [ %62, %60 ]
  %70 = phi i64 [ %47, %50 ], [ %61, %60 ]
  %.1.ph.i = phi i64 [ %57, %50 ], [ %67, %60 ]
  %71 = icmp ugt i64 %.1.ph.i, %70
  br i1 %71, label %SzReadID.exit, label %SzSkeepData.exit

SzSkeepData.exit:                                 ; preds = %.loopexit.i
  %72 = sub nuw i64 %70, %.1.ph.i
  store i64 %72, ptr %3, align 8
  %73 = getelementptr inbounds i8, ptr %69, i64 %.1.ph.i
  store ptr %73, ptr %0, align 8
  %74 = icmp eq i64 %72, 0
  br i1 %74, label %SzReadID.exit, label %5

SzReadID.exit:                                    ; preds = %.loopexit, %37, %SzSkeepData.exit, %.loopexit.i, %.lr.ph.i, %58, %2
  %.0 = phi i32 [ 16, %2 ], [ 16, %58 ], [ 16, %.lr.ph.i ], [ 0, %.loopexit ], [ 16, %37 ], [ 16, %SzSkeepData.exit ], [ 16, %.loopexit.i ]
  ret i32 %.0
}